target datalayout = "e-m:e-p270:32:32-p271:32:32-p272:64:64-i64:64-i128:128-f80:128-n8:16:32:64-S128"
target triple = "x86_64-pc-linux-gnu"

%struct.Int128_ = type { i64, i64 }
%struct.Int = type { %struct.Int128_, i32 }

@.str = private unnamed_addr constant [36 x i8] c"FATAL ERROR %s -> in %s @ in %s:%d \00", align 1
@.str.1 = private unnamed_addr constant [22 x i8] c"Should be unreachable\00", align 1
@.str.2 = private unnamed_addr constant [107 x i8] c"generated/home/dtcxzyw/WorkSpace/Projects/compilers/llvm-opt-benchmark/bench/c3c/c3c/src/compiler/bigint.c\00", align 1
@__func__.int_fits = private unnamed_addr constant [9 x i8] c"int_fits\00", align 1

; Function Attrs: nounwind uwtable
define dso_local zeroext i1 @i128_is_neg(i64 %0, i64 %1) #0 {
  %3 = alloca %struct.Int128_, align 8
  %4 = getelementptr inbounds { i64, i64 }, ptr %3, i32 0, i32 0
  store i64 %0, ptr %4, align 8
  %5 = getelementptr inbounds { i64, i64 }, ptr %3, i32 0, i32 1
  store i64 %1, ptr %5, align 8
  %6 = getelementptr inbounds %struct.Int128_, ptr %3, i32 0, i32 0
  %7 = load i64, ptr %6, align 8
  %8 = lshr i64 %7, 63
  %9 = icmp ne i64 %8, 0
  ret i1 %9
}

; Function Attrs: nounwind uwtable
define dso_local i32 @i128_ucomp(i64 %0, i64 %1, i64 %2, i64 %3) #0 {
  %5 = alloca i32, align 4
  %6 = alloca %struct.Int128_, align 8
  %7 = alloca %struct.Int128_, align 8
  %8 = getelementptr inbounds { i64, i64 }, ptr %6, i32 0, i32 0
  store i64 %0, ptr %8, align 8
  %9 = getelementptr inbounds { i64, i64 }, ptr %6, i32 0, i32 1
  store i64 %1, ptr %9, align 8
  %10 = getelementptr inbounds { i64, i64 }, ptr %7, i32 0, i32 0
  store i64 %2, ptr %10, align 8
  %11 = getelementptr inbounds { i64, i64 }, ptr %7, i32 0, i32 1
  store i64 %3, ptr %11, align 8
  %12 = getelementptr inbounds %struct.Int128_, ptr %6, i32 0, i32 0
  %13 = load i64, ptr %12, align 8
  %14 = getelementptr inbounds %struct.Int128_, ptr %7, i32 0, i32 0
  %15 = load i64, ptr %14, align 8
  %16 = icmp ugt i64 %13, %15
  br i1 %16, label %17, label %18

17:                                               ; preds = %4
  store i32 1, ptr %5, align 4
  br label %39

18:                                               ; preds = %4
  %19 = getelementptr inbounds %struct.Int128_, ptr %6, i32 0, i32 0
  %20 = load i64, ptr %19, align 8
  %21 = getelementptr inbounds %struct.Int128_, ptr %7, i32 0, i32 0
  %22 = load i64, ptr %21, align 8
  %23 = icmp ult i64 %20, %22
  br i1 %23, label %24, label %25

24:                                               ; preds = %18
  store i32 -1, ptr %5, align 4
  br label %39

25:                                               ; preds = %18
  %26 = getelementptr inbounds %struct.Int128_, ptr %6, i32 0, i32 1
  %27 = load i64, ptr %26, align 8
  %28 = getelementptr inbounds %struct.Int128_, ptr %7, i32 0, i32 1
  %29 = load i64, ptr %28, align 8
  %30 = icmp eq i64 %27, %29
  br i1 %30, label %31, label %32

31:                                               ; preds = %25
  store i32 0, ptr %5, align 4
  br label %39

32:                                               ; preds = %25
  %33 = getelementptr inbounds %struct.Int128_, ptr %6, i32 0, i32 1
  %34 = load i64, ptr %33, align 8
  %35 = getelementptr inbounds %struct.Int128_, ptr %7, i32 0, i32 1
  %36 = load i64, ptr %35, align 8
  %37 = icmp ugt i64 %34, %36
  %38 = select i1 %37, i32 1, i32 -1
  store i32 %38, ptr %5, align 4
  br label %39

39:                                               ; preds = %32, %31, %24, %17
  %40 = load i32, ptr %5, align 4
  ret i32 %40
}

; Function Attrs: nounwind uwtable
define dso_local i32 @i128_scomp(i64 %0, i64 %1, i64 %2, i64 %3) #0 {
  %5 = alloca i32, align 4
  %6 = alloca %struct.Int128_, align 8
  %7 = alloca %struct.Int128_, align 8
  %8 = alloca i8, align 1
  %9 = alloca i8, align 1
  %10 = getelementptr inbounds { i64, i64 }, ptr %6, i32 0, i32 0
  store i64 %0, ptr %10, align 8
  %11 = getelementptr inbounds { i64, i64 }, ptr %6, i32 0, i32 1
  store i64 %1, ptr %11, align 8
  %12 = getelementptr inbounds { i64, i64 }, ptr %7, i32 0, i32 0
  store i64 %2, ptr %12, align 8
  %13 = getelementptr inbounds { i64, i64 }, ptr %7, i32 0, i32 1
  store i64 %3, ptr %13, align 8
  %14 = getelementptr inbounds %struct.Int128_, ptr %6, i32 0, i32 0
  %15 = load i64, ptr %14, align 8
  %16 = and i64 %15, -9223372036854775808
  %17 = icmp ne i64 %16, 0
  %18 = zext i1 %17 to i8
  store i8 %18, ptr %8, align 1
  %19 = getelementptr inbounds %struct.Int128_, ptr %7, i32 0, i32 0
  %20 = load i64, ptr %19, align 8
  %21 = and i64 %20, -9223372036854775808
  %22 = icmp ne i64 %21, 0
  %23 = zext i1 %22 to i8
  store i8 %23, ptr %9, align 1
  %24 = load i8, ptr %8, align 1
  %25 = trunc i8 %24 to i1
  %26 = zext i1 %25 to i32
  %27 = load i8, ptr %9, align 1
  %28 = trunc i8 %27 to i1
  %29 = zext i1 %28 to i32
  %30 = icmp ne i32 %26, %29
  br i1 %30, label %31, label %35

31:                                               ; preds = %4
  %32 = load i8, ptr %8, align 1
  %33 = trunc i8 %32 to i1
  %34 = select i1 %33, i32 -1, i32 1
  store i32 %34, ptr %5, align 4
  br label %63

35:                                               ; preds = %4
  %36 = getelementptr inbounds %struct.Int128_, ptr %6, i32 0, i32 0
  %37 = load i64, ptr %36, align 8
  %38 = getelementptr inbounds %struct.Int128_, ptr %7, i32 0, i32 0
  %39 = load i64, ptr %38, align 8
  %40 = icmp ugt i64 %37, %39
  br i1 %40, label %41, label %42

41:                                               ; preds = %35
  store i32 1, ptr %5, align 4
  br label %63

42:                                               ; preds = %35
  %43 = getelementptr inbounds %struct.Int128_, ptr %6, i32 0, i32 0
  %44 = load i64, ptr %43, align 8
  %45 = getelementptr inbounds %struct.Int128_, ptr %7, i32 0, i32 0
  %46 = load i64, ptr %45, align 8
  %47 = icmp ult i64 %44, %46
  br i1 %47, label %48, label %49

48:                                               ; preds = %42
  store i32 -1, ptr %5, align 4
  br label %63

49:                                               ; preds = %42
  %50 = getelementptr inbounds %struct.Int128_, ptr %6, i32 0, i32 1
  %51 = load i64, ptr %50, align 8
  %52 = getelementptr inbounds %struct.Int128_, ptr %7, i32 0, i32 1
  %53 = load i64, ptr %52, align 8
  %54 = icmp eq i64 %51, %53
  br i1 %54, label %55, label %56

55:                                               ; preds = %49
  store i32 0, ptr %5, align 4
  br label %63

56:                                               ; preds = %49
  %57 = getelementptr inbounds %struct.Int128_, ptr %6, i32 0, i32 1
  %58 = load i64, ptr %57, align 8
  %59 = getelementptr inbounds %struct.Int128_, ptr %7, i32 0, i32 1
  %60 = load i64, ptr %59, align 8
  %61 = icmp ugt i64 %58, %60
  %62 = select i1 %61, i32 1, i32 -1
  store i32 %62, ptr %5, align 4
  br label %63

63:                                               ; preds = %56, %55, %48, %41, %31
  %64 = load i32, ptr %5, align 4
  ret i32 %64
}

; Function Attrs: nounwind uwtable
define dso_local { i64, i64 } @i128_from_signed(i64 noundef %0) #0 {
  %2 = alloca %struct.Int128_, align 8
  %3 = alloca i64, align 8
  store i64 %0, ptr %3, align 8
  %4 = getelementptr inbounds %struct.Int128_, ptr %2, i32 0, i32 0
  %5 = load i64, ptr %3, align 8
  %6 = icmp slt i64 %5, 0
  %7 = select i1 %6, i64 -1, i64 0
  store i64 %7, ptr %4, align 8
  %8 = getelementptr inbounds %struct.Int128_, ptr %2, i32 0, i32 1
  %9 = load i64, ptr %3, align 8
  store i64 %9, ptr %8, align 8
  %10 = load { i64, i64 }, ptr %2, align 8
  ret { i64, i64 } %10
}

; Function Attrs: nounwind uwtable
define dso_local zeroext i1 @int_fits(ptr noundef byval(%struct.Int) align 8 %0, i32 noundef %1) #0 {
  %3 = alloca i32, align 4
  %4 = alloca i1, align 1
  %5 = alloca i32, align 4
  %6 = alloca %struct.Int128_, align 8
  %7 = alloca %struct.Int128_, align 8
  %8 = alloca i8, align 1
  %9 = alloca %struct.Int128_, align 8
  %10 = alloca %struct.Int128_, align 8
  %11 = alloca %struct.Int128_, align 8
  %12 = alloca %struct.Int128_, align 8
  %13 = alloca %struct.Int128_, align 8
  %14 = alloca %struct.Int128_, align 8
  %15 = alloca %struct.Int128_, align 8
  %16 = alloca %struct.Int128_, align 8
  %17 = alloca %struct.Int128_, align 8
  %18 = alloca %struct.Int128_, align 8
  %19 = alloca %struct.Int128_, align 8
  %20 = alloca %struct.Int128_, align 8
  %21 = alloca %struct.Int128_, align 8
  %22 = alloca %struct.Int128_, align 8
  %23 = alloca %struct.Int128_, align 8
  %24 = alloca i8, align 1
  store i32 %1, ptr %5, align 4
  store i8 0, ptr %8, align 1
  %25 = load i32, ptr %5, align 4
  switch i32 %25, label %90 [
    i32 7, label %26
    i32 6, label %31
    i32 5, label %42
    i32 4, label %53
    i32 3, label %64
    i32 12, label %75
    i32 11, label %78
    i32 10, label %81
    i32 9, label %84
    i32 8, label %87
  ]

26:                                               ; preds = %2
  %27 = getelementptr inbounds %struct.Int128_, ptr %9, i32 0, i32 0
  store i64 -9223372036854775808, ptr %27, align 8
  %28 = getelementptr inbounds %struct.Int128_, ptr %9, i32 0, i32 1
  store i64 0, ptr %28, align 8
  call void @llvm.memcpy.p0.p0.i64(ptr align 8 %6, ptr align 8 %9, i64 16, i1 false)
  %29 = getelementptr inbounds %struct.Int128_, ptr %10, i32 0, i32 0
  store i64 9223372036854775807, ptr %29, align 8
  %30 = getelementptr inbounds %struct.Int128_, ptr %10, i32 0, i32 1
  store i64 -1, ptr %30, align 8
  call void @llvm.memcpy.p0.p0.i64(ptr align 8 %7, ptr align 8 %10, i64 16, i1 false)
  store i8 1, ptr %8, align 1
  br label %93

31:                                               ; preds = %2
  %32 = call { i64, i64 } @i128_from_signed(i64 noundef -9223372036854775808)
  %33 = getelementptr inbounds { i64, i64 }, ptr %11, i32 0, i32 0
  %34 = extractvalue { i64, i64 } %32, 0
  store i64 %34, ptr %33, align 8
  %35 = getelementptr inbounds { i64, i64 }, ptr %11, i32 0, i32 1
  %36 = extractvalue { i64, i64 } %32, 1
  store i64 %36, ptr %35, align 8
  call void @llvm.memcpy.p0.p0.i64(ptr align 8 %6, ptr align 8 %11, i64 16, i1 false)
  %37 = call { i64, i64 } @i128_from_signed(i64 noundef 9223372036854775807)
  %38 = getelementptr inbounds { i64, i64 }, ptr %12, i32 0, i32 0
  %39 = extractvalue { i64, i64 } %37, 0
  store i64 %39, ptr %38, align 8
  %40 = getelementptr inbounds { i64, i64 }, ptr %12, i32 0, i32 1
  %41 = extractvalue { i64, i64 } %37, 1
  store i64 %41, ptr %40, align 8
  call void @llvm.memcpy.p0.p0.i64(ptr align 8 %7, ptr align 8 %12, i64 16, i1 false)
  store i8 1, ptr %8, align 1
  br label %93

42:                                               ; preds = %2
  %43 = call { i64, i64 } @i128_from_signed(i64 noundef -2147483648)
  %44 = getelementptr inbounds { i64, i64 }, ptr %13, i32 0, i32 0
  %45 = extractvalue { i64, i64 } %43, 0
  store i64 %45, ptr %44, align 8
  %46 = getelementptr inbounds { i64, i64 }, ptr %13, i32 0, i32 1
  %47 = extractvalue { i64, i64 } %43, 1
  store i64 %47, ptr %46, align 8
  call void @llvm.memcpy.p0.p0.i64(ptr align 8 %6, ptr align 8 %13, i64 16, i1 false)
  %48 = call { i64, i64 } @i128_from_signed(i64 noundef 2147483647)
  %49 = getelementptr inbounds { i64, i64 }, ptr %14, i32 0, i32 0
  %50 = extractvalue { i64, i64 } %48, 0
  store i64 %50, ptr %49, align 8
  %51 = getelementptr inbounds { i64, i64 }, ptr %14, i32 0, i32 1
  %52 = extractvalue { i64, i64 } %48, 1
  store i64 %52, ptr %51, align 8
  call void @llvm.memcpy.p0.p0.i64(ptr align 8 %7, ptr align 8 %14, i64 16, i1 false)
  store i8 1, ptr %8, align 1
  br label %93

53:                                               ; preds = %2
  %54 = call { i64, i64 } @i128_from_signed(i64 noundef -32768)
  %55 = getelementptr inbounds { i64, i64 }, ptr %15, i32 0, i32 0
  %56 = extractvalue { i64, i64 } %54, 0
  store i64 %56, ptr %55, align 8
  %57 = getelementptr inbounds { i64, i64 }, ptr %15, i32 0, i32 1
  %58 = extractvalue { i64, i64 } %54, 1
  store i64 %58, ptr %57, align 8
  call void @llvm.memcpy.p0.p0.i64(ptr align 8 %6, ptr align 8 %15, i64 16, i1 false)
  %59 = call { i64, i64 } @i128_from_signed(i64 noundef 32767)
  %60 = getelementptr inbounds { i64, i64 }, ptr %16, i32 0, i32 0
  %61 = extractvalue { i64, i64 } %59, 0
  store i64 %61, ptr %60, align 8
  %62 = getelementptr inbounds { i64, i64 }, ptr %16, i32 0, i32 1
  %63 = extractvalue { i64, i64 } %59, 1
  store i64 %63, ptr %62, align 8
  call void @llvm.memcpy.p0.p0.i64(ptr align 8 %7, ptr align 8 %16, i64 16, i1 false)
  store i8 1, ptr %8, align 1
  br label %93

64:                                               ; preds = %2
  %65 = call { i64, i64 } @i128_from_signed(i64 noundef -128)
  %66 = getelementptr inbounds { i64, i64 }, ptr %17, i32 0, i32 0
  %67 = extractvalue { i64, i64 } %65, 0
  store i64 %67, ptr %66, align 8
  %68 = getelementptr inbounds { i64, i64 }, ptr %17, i32 0, i32 1
  %69 = extractvalue { i64, i64 } %65, 1
  store i64 %69, ptr %68, align 8
  call void @llvm.memcpy.p0.p0.i64(ptr align 8 %6, ptr align 8 %17, i64 16, i1 false)
  %70 = call { i64, i64 } @i128_from_signed(i64 noundef 127)
  %71 = getelementptr inbounds { i64, i64 }, ptr %18, i32 0, i32 0
  %72 = extractvalue { i64, i64 } %70, 0
  store i64 %72, ptr %71, align 8
  %73 = getelementptr inbounds { i64, i64 }, ptr %18, i32 0, i32 1
  %74 = extractvalue { i64, i64 } %70, 1
  store i64 %74, ptr %73, align 8
  call void @llvm.memcpy.p0.p0.i64(ptr align 8 %7, ptr align 8 %18, i64 16, i1 false)
  store i8 1, ptr %8, align 1
  br label %93

75:                                               ; preds = %2
  %76 = getelementptr inbounds %struct.Int128_, ptr %19, i32 0, i32 0
  store i64 -1, ptr %76, align 8
  %77 = getelementptr inbounds %struct.Int128_, ptr %19, i32 0, i32 1
  store i64 -1, ptr %77, align 8
  call void @llvm.memcpy.p0.p0.i64(ptr align 8 %7, ptr align 8 %19, i64 16, i1 false)
  br label %93

78:                                               ; preds = %2
  %79 = getelementptr inbounds %struct.Int128_, ptr %20, i32 0, i32 0
  store i64 0, ptr %79, align 8
  %80 = getelementptr inbounds %struct.Int128_, ptr %20, i32 0, i32 1
  store i64 -1, ptr %80, align 8
  call void @llvm.memcpy.p0.p0.i64(ptr align 8 %7, ptr align 8 %20, i64 16, i1 false)
  br label %93

81:                                               ; preds = %2
  %82 = getelementptr inbounds %struct.Int128_, ptr %21, i32 0, i32 0
  store i64 0, ptr %82, align 8
  %83 = getelementptr inbounds %struct.Int128_, ptr %21, i32 0, i32 1
  store i64 4294967295, ptr %83, align 8
  call void @llvm.memcpy.p0.p0.i64(ptr align 8 %7, ptr align 8 %21, i64 16, i1 false)
  br label %93

84:                                               ; preds = %2
  %85 = getelementptr inbounds %struct.Int128_, ptr %22, i32 0, i32 0
  store i64 0, ptr %85, align 8
  %86 = getelementptr inbounds %struct.Int128_, ptr %22, i32 0, i32 1
  store i64 65535, ptr %86, align 8
  call void @llvm.memcpy.p0.p0.i64(ptr align 8 %7, ptr align 8 %22, i64 16, i1 false)
  br label %93

87:                                               ; preds = %2
  %88 = getelementptr inbounds %struct.Int128_, ptr %23, i32 0, i32 0
  store i64 0, ptr %88, align 8
  %89 = getelementptr inbounds %struct.Int128_, ptr %23, i32 0, i32 1
  store i64 255, ptr %89, align 8
  call void @llvm.memcpy.p0.p0.i64(ptr align 8 %7, ptr align 8 %23, i64 16, i1 false)
  br label %93

90:                                               ; preds = %2
  br label %91

91:                                               ; preds = %90
  call void (ptr, ...) @error_exit(ptr noundef @.str, ptr noundef @.str.1, ptr noundef @__func__.int_fits, ptr noundef @.str.2, i32 noundef 686) #8
  unreachable

92:                                               ; No predecessors!
  br label %93

93:                                               ; preds = %92, %87, %84, %81, %78, %75, %64, %53, %42, %31, %26
  %94 = getelementptr inbounds %struct.Int, ptr %0, i32 0, i32 1
  %95 = load i32, ptr %94, align 8
  store i32 %95, ptr %3, align 4
  %96 = load i32, ptr %3, align 4
  %97 = icmp uge i32 %96, 3
  br i1 %97, label %98, label %101

98:                                               ; preds = %93
  %99 = load i32, ptr %3, align 4
  %100 = icmp ult i32 %99, 8
  br label %101

101:                                              ; preds = %98, %93
  %102 = phi i1 [ false, %93 ], [ %100, %98 ]
  %103 = zext i1 %102 to i8
  store i8 %103, ptr %24, align 1
  %104 = load i8, ptr %8, align 1
  %105 = trunc i8 %104 to i1
  br i1 %105, label %106, label %148

106:                                              ; preds = %101
  %107 = load i8, ptr %24, align 1
  %108 = trunc i8 %107 to i1
  br i1 %108, label %109, label %136

109:                                              ; preds = %106
  %110 = getelementptr inbounds %struct.Int, ptr %0, i32 0, i32 0
  %111 = getelementptr inbounds { i64, i64 }, ptr %110, i32 0, i32 0
  %112 = load i64, ptr %111, align 8
  %113 = getelementptr inbounds { i64, i64 }, ptr %110, i32 0, i32 1
  %114 = load i64, ptr %113, align 8
  %115 = getelementptr inbounds { i64, i64 }, ptr %6, i32 0, i32 0
  %116 = load i64, ptr %115, align 8
  %117 = getelementptr inbounds { i64, i64 }, ptr %6, i32 0, i32 1
  %118 = load i64, ptr %117, align 8
  %119 = call i32 @i128_scomp(i64 %112, i64 %114, i64 %116, i64 %118)
  %120 = icmp eq i32 %119, -1
  br i1 %120, label %121, label %122

121:                                              ; preds = %109
  store i1 false, ptr %4, align 1
  br label %185

122:                                              ; preds = %109
  %123 = getelementptr inbounds %struct.Int, ptr %0, i32 0, i32 0
  %124 = getelementptr inbounds { i64, i64 }, ptr %123, i32 0, i32 0
  %125 = load i64, ptr %124, align 8
  %126 = getelementptr inbounds { i64, i64 }, ptr %123, i32 0, i32 1
  %127 = load i64, ptr %126, align 8
  %128 = getelementptr inbounds { i64, i64 }, ptr %7, i32 0, i32 0
  %129 = load i64, ptr %128, align 8
  %130 = getelementptr inbounds { i64, i64 }, ptr %7, i32 0, i32 1
  %131 = load i64, ptr %130, align 8
  %132 = call i32 @i128_scomp(i64 %125, i64 %127, i64 %129, i64 %131)
  %133 = icmp eq i32 %132, 1
  br i1 %133, label %134, label %135

134:                                              ; preds = %122
  store i1 false, ptr %4, align 1
  br label %185

135:                                              ; preds = %122
  store i1 true, ptr %4, align 1
  br label %185

136:                                              ; preds = %106
  %137 = getelementptr inbounds %struct.Int, ptr %0, i32 0, i32 0
  %138 = getelementptr inbounds { i64, i64 }, ptr %137, i32 0, i32 0
  %139 = load i64, ptr %138, align 8
  %140 = getelementptr inbounds { i64, i64 }, ptr %137, i32 0, i32 1
  %141 = load i64, ptr %140, align 8
  %142 = getelementptr inbounds { i64, i64 }, ptr %7, i32 0, i32 0
  %143 = load i64, ptr %142, align 8
  %144 = getelementptr inbounds { i64, i64 }, ptr %7, i32 0, i32 1
  %145 = load i64, ptr %144, align 8
  %146 = call i32 @i128_ucomp(i64 %139, i64 %141, i64 %143, i64 %145)
  %147 = icmp ne i32 %146, 1
  store i1 %147, ptr %4, align 1
  br label %185

148:                                              ; preds = %101
  %149 = load i8, ptr %24, align 1
  %150 = trunc i8 %149 to i1
  br i1 %150, label %151, label %173

151:                                              ; preds = %148
  %152 = getelementptr inbounds %struct.Int, ptr %0, i32 0, i32 0
  %153 = getelementptr inbounds { i64, i64 }, ptr %152, i32 0, i32 0
  %154 = load i64, ptr %153, align 8
  %155 = getelementptr inbounds { i64, i64 }, ptr %152, i32 0, i32 1
  %156 = load i64, ptr %155, align 8
  %157 = call zeroext i1 @i128_is_neg(i64 %154, i64 %156)
  br i1 %157, label %158, label %159

158:                                              ; preds = %151
  store i1 false, ptr %4, align 1
  br label %185

159:                                              ; preds = %151
  %160 = getelementptr inbounds %struct.Int, ptr %0, i32 0, i32 0
  %161 = getelementptr inbounds { i64, i64 }, ptr %160, i32 0, i32 0
  %162 = load i64, ptr %161, align 8
  %163 = getelementptr inbounds { i64, i64 }, ptr %160, i32 0, i32 1
  %164 = load i64, ptr %163, align 8
  %165 = getelementptr inbounds { i64, i64 }, ptr %7, i32 0, i32 0
  %166 = load i64, ptr %165, align 8
  %167 = getelementptr inbounds { i64, i64 }, ptr %7, i32 0, i32 1
  %168 = load i64, ptr %167, align 8
  %169 = call i32 @i128_ucomp(i64 %162, i64 %164, i64 %166, i64 %168)
  %170 = icmp eq i32 %169, 1
  br i1 %170, label %171, label %172

171:                                              ; preds = %159
  store i1 false, ptr %4, align 1
  br label %185

172:                                              ; preds = %159
  store i1 true, ptr %4, align 1
  br label %185

173:                                              ; preds = %148
  %174 = getelementptr inbounds %struct.Int, ptr %0, i32 0, i32 0
  %175 = getelementptr inbounds { i64, i64 }, ptr %174, i32 0, i32 0
  %176 = load i64, ptr %175, align 8
  %177 = getelementptr inbounds { i64, i64 }, ptr %174, i32 0, i32 1
  %178 = load i64, ptr %177, align 8
  %179 = getelementptr inbounds { i64, i64 }, ptr %7, i32 0, i32 0
  %180 = load i64, ptr %179, align 8
  %181 = getelementptr inbounds { i64, i64 }, ptr %7, i32 0, i32 1
  %182 = load i64, ptr %181, align 8
  %183 = call i32 @i128_ucomp(i64 %176, i64 %178, i64 %180, i64 %182)
  %184 = icmp ne i32 %183, 1
  store i1 %184, ptr %4, align 1
  br label %185

185:                                              ; preds = %173, %172, %171, %158, %136, %135, %134, %121
  %186 = load i1, ptr %4, align 1
  ret i1 %186
}