; Function Attrs: nounwind uwtable
define dso_local zeroext i1 @int_fits(ptr noundef readonly byval(%struct.Int) align 8 captures(none) %0, i32 noundef %1) local_unnamed_addr #0 {
  switch i32 %1, label %11 [
    i32 7, label %12
    i32 6, label %3
    i32 5, label %4
    i32 4, label %5
    i32 3, label %6
    i32 12, label %36
    i32 11, label %7
    i32 10, label %8
    i32 9, label %9
    i32 8, label %10
  ]

3:                                                ; preds = %2
  br label %12

4:                                                ; preds = %2
  br label %12

5:                                                ; preds = %2
  br label %12

6:                                                ; preds = %2
  br label %12

7:                                                ; preds = %2
  br label %36

8:                                                ; preds = %2
  br label %36

9:                                                ; preds = %2
  br label %36

10:                                               ; preds = %2
  br label %36

11:                                               ; preds = %2
  tail call void (ptr, ...) @error_exit(ptr noundef nonnull @.str, ptr noundef nonnull @.str.1, ptr noundef nonnull @__func__.int_fits, ptr noundef nonnull @.str.2, i32 noundef 686) #20
  unreachable

12:                                               ; preds = %6, %5, %4, %3, %2
  %.sroa.031.0.ph = phi i64 [ 9223372036854775807, %2 ], [ 0, %3 ], [ 0, %4 ], [ 0, %5 ], [ 0, %6 ]
  %.sroa.14.0.ph = phi i64 [ -1, %2 ], [ 9223372036854775807, %3 ], [ 2147483647, %4 ], [ 32767, %5 ], [ 127, %6 ]
  %.sroa.038.0.ph = phi i64 [ -9223372036854775808, %2 ], [ -1, %3 ], [ -1, %4 ], [ -1, %5 ], [ -1, %6 ]
  %.sroa.6.0.ph = phi i64 [ 0, %2 ], [ -9223372036854775808, %3 ], [ -2147483648, %4 ], [ -32768, %5 ], [ -128, %6 ]
  %13 = getelementptr inbounds nuw i8, ptr %0, i64 16
  %14 = load i32, ptr %13, align 8
  %15 = add i32 %14, -3
  %16 = icmp ult i32 %15, 5
  %17 = load i64, ptr %0, align 8
  br i1 %16, label %18, label %29

18:                                               ; preds = %12
  %19 = getelementptr inbounds nuw i8, ptr %0, i64 8
  %20 = load i64, ptr %19, align 8
  %.not.i = icmp sgt i64 %17, -1
  %21 = icmp ugt i64 %17, %.sroa.038.0.ph
  %or.cond = or i1 %.not.i, %21
  br i1 %or.cond, label %select.unfold62, label %22

22:                                               ; preds = %18
  %23 = icmp samesign ult i64 %17, %.sroa.038.0.ph
  %or.cond.not = icmp ult i64 %20, %.sroa.6.0.ph
  %or.cond80 = select i1 %23, i1 true, i1 %or.cond.not
  br i1 %or.cond80, label %i128_scomp.exit, label %i128_scomp.exit47.thread

select.unfold62:                                  ; preds = %18
  br i1 %.not.i, label %24, label %i128_scomp.exit47.thread

24:                                               ; preds = %select.unfold62
  %25 = icmp samesign ugt i64 %17, %.sroa.031.0.ph
  br i1 %25, label %i128_scomp.exit, label %26

26:                                               ; preds = %24
  %27 = icmp samesign uge i64 %17, %.sroa.031.0.ph
  %28 = icmp ugt i64 %20, %.sroa.14.0.ph
  %or.cond72 = select i1 %27, i1 %28, i1 false
  br i1 %or.cond72, label %i128_scomp.exit, label %i128_scomp.exit47.thread

i128_scomp.exit47.thread:                         ; preds = %22, %select.unfold62, %26
  br label %i128_scomp.exit

29:                                               ; preds = %12
  %30 = icmp ugt i64 %17, %.sroa.031.0.ph
  br i1 %30, label %i128_scomp.exit, label %31

31:                                               ; preds = %29
  %32 = getelementptr inbounds nuw i8, ptr %0, i64 8
  %33 = load i64, ptr %32, align 8
  %34 = icmp samesign ult i64 %17, %.sroa.031.0.ph
  %35 = icmp ule i64 %33, %.sroa.14.0.ph
  %spec.select = select i1 %34, i1 true, i1 %35
  br label %i128_scomp.exit

36:                                               ; preds = %2, %7, %8, %9, %10
  %.sroa.031.0 = phi i64 [ 0, %10 ], [ 0, %9 ], [ 0, %8 ], [ 0, %7 ], [ -1, %2 ]
  %.sroa.14.0 = phi i64 [ 255, %10 ], [ 65535, %9 ], [ 4294967295, %8 ], [ -1, %7 ], [ -1, %2 ]
  %37 = getelementptr inbounds nuw i8, ptr %0, i64 16
  %38 = load i32, ptr %37, align 8
  %39 = add i32 %38, -3
  %40 = icmp ult i32 %39, 5
  %41 = load i64, ptr %0, align 8
  br i1 %40, label %42, label %50

42:                                               ; preds = %36
  %43 = icmp slt i64 %41, 0
  %44 = icmp ugt i64 %41, %.sroa.031.0
  %or.cond82 = or i1 %43, %44
  br i1 %or.cond82, label %i128_scomp.exit, label %45

45:                                               ; preds = %42
  %46 = getelementptr inbounds nuw i8, ptr %0, i64 8
  %47 = load i64, ptr %46, align 8
  %48 = icmp ult i64 %41, %.sroa.031.0
  %49 = icmp ule i64 %47, %.sroa.14.0
  %or.cond74.not = select i1 %48, i1 true, i1 %49
  br label %i128_scomp.exit

50:                                               ; preds = %36
  %51 = icmp ugt i64 %41, %.sroa.031.0
  br i1 %51, label %i128_scomp.exit, label %52

52:                                               ; preds = %50
  %53 = getelementptr inbounds nuw i8, ptr %0, i64 8
  %54 = load i64, ptr %53, align 8
  %55 = icmp ult i64 %41, %.sroa.031.0
  %56 = icmp ule i64 %54, %.sroa.14.0
  %spec.select84 = select i1 %55, i1 true, i1 %56
  br label %i128_scomp.exit

i128_scomp.exit:                                  ; preds = %52, %31, %50, %29, %45, %26, %i128_scomp.exit47.thread, %24, %22, %42
  %.0 = phi i1 [ false, %42 ], [ false, %22 ], [ true, %i128_scomp.exit47.thread ], [ false, %24 ], [ false, %26 ], [ %or.cond74.not, %45 ], [ false, %29 ], [ false, %50 ], [ %spec.select, %31 ], [ %spec.select84, %52 ]
  ret i1 %.0
}